; Function Attrs: mustprogress nofree norecurse nosync nounwind willreturn memory(readwrite, inaccessiblemem: none) uwtable
define dso_local void @_ZN4llvm17LoadIntFromMemoryERNS_5APIntEPKhj(ptr noundef nonnull align 8 captures(none) dereferenceable(12) %0, ptr noundef readonly captures(none) %1, i32 noundef %2) local_unnamed_addr #8 {
  %4 = getelementptr inbounds nuw i8, ptr %0, i64 8
  %5 = load i32, ptr %4, align 8
  %6 = icmp ult i32 %5, 65
  %7 = load ptr, ptr %0, align 8
  %.0.i = select i1 %6, ptr %0, ptr %7
  %8 = zext i32 %2 to i64
  tail call void @llvm.memcpy.p0.p0.i64(ptr align 1 %.0.i, ptr align 1 %1, i64 %8, i1 false)
  ret void
}